; Function Attrs: mustprogress nofree norecurse nosync nounwind willreturn memory(argmem: readwrite) uwtable
define noundef i32 @wolfSSL_use_old_poly(ptr noundef captures(none) %0, i32 noundef %1) local_unnamed_addr #4 {
  %3 = getelementptr inbounds nuw i8, ptr %0, i64 1024
  %4 = load i64, ptr %3, align 8
  %5 = and i32 %1, 1
  %6 = zext nneg i32 %5 to i64
  %7 = shl nuw nsw i64 %6, 42
  %8 = and i64 %4, -4398046511105
  %9 = or disjoint i64 %8, %7
  store i64 %9, ptr %3, align 8
  ret i32 0
}